Certificate:
    Data:
        Version: 3 (0x2)
        Serial Number: 4096 (0x1000)
    Signature Algorithm: sha256WithRSAEncryption
        Issuer: C=SU, ST=SEEDLabs, L=Cuse, O=Lab 6, OU=PKI, CN=SEEDPKILab62020.com/emailAddress=cappetta<@>syr.edu
        Validity
            Not Before: Nov 25 19:46:53 2020 GMT
            Not After : Nov 25 19:46:53 2021 GMT
        Subject: C=SU, ST=SEEDLabs, O=Lab 6, OU=PKI, CN=SEEDPKILab2020.com/emailAddress=cappetta@syr.edu
        Subject Public Key Info:
            Public Key Algorithm: rsaEncryption
                Public-Key: (1024 bit)
                Modulus:
                    00:a2:cd:b5:82:87:a6:dd:c3:68:75:22:8c:dd:8a:
                    cf:d5:f1:09:aa:27:40:0b:0e:6e:10:7c:5f:6a:6b:
                    c8:4b:14:8c:49:5a:1e:2c:b1:1b:68:fe:3a:b7:d7:
                    d6:c7:0b:8a:e0:ab:50:bf:08:1f:fe:0f:4f:a4:98:
                    5e:7b:ce:af:02:98:85:c8:c4:99:2d:40:d0:41:87:
                    8f:eb:5b:1a:c1:d9:0f:e3:36:5d:bc:d0:65:c7:a9:
                    1a:c2:26:1e:e9:6f:68:5b:66:2d:13:b8:e8:3a:3e:
                    3b:1c:bf:f0:19:10:e7:14:60:b1:da:30:7b:25:fa:
                    75:ac:1c:89:7b:e0:76:1f:5f
                Exponent: 65537 (0x10001)
        X509v3 extensions:
            X509v3 Basic Constraints: 
                CA:FALSE
            Netscape Comment: 
                OpenSSL Generated Certificate
            X509v3 Subject Key Identifier: 
                83:13:7B:CA:AB:ED:70:E4:45:33:10:3E:E7:05:9F:7B:C1:B4:3E:BB
            X509v3 Authority Key Identifier: 
                keyid:29:64:F4:78:B5:B4:B9:5C:79:1D:35:6C:DD:8B:81:16:7C:B2:3D:04

    Signature Algorithm: sha256WithRSAEncryption
         b6:85:5a:fe:64:20:8f:da:cb:4d:b8:b1:08:3b:09:c0:6e:0e:
         db:d9:e3:8f:2b:ff:36:58:46:94:0c:25:7f:b6:ec:c0:43:64:
         4f:2b:de:c1:f9:73:dc:89:b6:d8:12:3c:0a:f9:45:c1:16:7f:
         dd:f1:66:8c:4c:37:4f:96:4e:1d:90:3e:2c:1d:68:37:15:86:
         21:cf:cc:38:4c:63:66:a7:17:2a:e4:f5:06:51:80:07:8e:d3:
         18:ca:aa:40:b6:7f:7b:6f:24:5a:34:cc:43:24:67:5d:8c:89:
         73:b1:a5:95:7c:4a:76:fd:a7:f1:a8:65:e6:83:86:a3:37:d2:
         16:92:ec:fa:9e:af:f2:f1:49:0f:9b:09:cd:ef:e7:8d:dd:32:
         8d:20:57:77:04:c8:1c:91:af:de:8e:fa:eb:86:31:fb:64:1e:
         77:28:69:64:24:e2:ca:69:f7:b9:77:12:2f:c9:12:be:f3:0a:
         53:ef:9a:f0:f2:52:c5:a8:1c:92:9c:0d:bf:2b:e2:79:cd:e1:
         67:1d:1f:53:f7:b8:03:56:0a:53:54:8a:99:97:82:41:6d:2e:
         8f:d2:04:3b:88:43:e4:42:5b:84:1c:55:54:13:6f:1c:37:dc:
         81:bc:9f:26:11:c3:c6:de:ab:5e:97:08:56:0e:21:c5:3d:fd:
         e6:0c:e2:19
-----BEGIN CERTIFICATE-----
MIIDfjCCAmagAwIBAgICEAAwDQYJKoZIhvcNAQELBQAwgY4xCzAJBgNVBAYTAlNV
MREwDwYDVQQIDAhTRUVETGFiczENMAsGA1UEBwwEQ3VzZTEOMAwGA1UECgwFTGFi
IDYxDDAKBgNVBAsMA1BLSTEcMBoGA1UEAwwTU0VFRFBLSUxhYjYyMDIwLmNvbTEh
MB8GCSqGSIb3DQEJARYSY2FwcGV0dGE8QD5zeXIuZWR1MB4XDTIwMTEyNTE5NDY1
M1oXDTIxMTEyNTE5NDY1M1owfDELMAkGA1UEBhMCU1UxETAPBgNVBAgMCFNFRURM
YWJzMQ4wDAYDVQQKDAVMYWIgNjEMMAoGA1UECwwDUEtJMRswGQYDVQQDDBJTRUVE
UEtJTGFiMjAyMC5jb20xHzAdBgkqhkiG9w0BCQEWEGNhcHBldHRhQHN5ci5lZHUw
gZ8wDQYJKoZIhvcNAQEBBQADgY0AMIGJAoGBAKLNtYKHpt3DaHUijN2Kz9XxCaon
QAsObhB8X2pryEsUjElaHiyxG2j+OrfX1scLiuCrUL8IH/4PT6SYXnvOrwKYhcjE
mS1A0EGHj+tbGsHZD+M2XbzQZcepGsImHulvaFtmLRO46Do+Oxy/8BkQ5xRgsdow
eyX6dawciXvgdh9fAgMBAAGjezB5MAkGA1UdEwQCMAAwLAYJYIZIAYb4QgENBB8W
HU9wZW5TU0wgR2VuZXJhdGVkIENlcnRpZmljYXRlMB0GA1UdDgQWBBSDE3vKq+1w
5EUzED7nBZ97wbQ+uzAfBgNVHSMEGDAWgBQpZPR4tbS5XHkdNWzdi4EWfLI9BDAN
BgkqhkiG9w0BAQsFAAOCAQEAtoVa/mQgj9rLTbixCDsJwG4O29njjyv/NlhGlAwl
f7bswENkTyvewflz3Im22BI8CvlFwRZ/3fFmjEw3T5ZOHZA+LB1oNxWGIc/MOExj
ZqcXKuT1BlGAB47TGMqqQLZ/e28kWjTMQyRnXYyJc7GllXxKdv2n8ahl5oOGozfS
FpLs+p6v8vFJD5sJze/njd0yjSBXdwTIHJGv3o7664Yx+2QedyhpZCTiymn3uXcS
L8kSvvMKU++a8PJSxagckpwNvyviec3hZx0fU/e4A1YKU1SKmZeCQW0uj9IEO4hD
5EJbhBxVVBNvHDfcgbyfJhHDxt6rXpcIVg4hxT395gziGQ==
-----END CERTIFICATE-----
