Certificate:
    Data:
        Version: 3 (0x2)
        Serial Number: 4097 (0x1001)
    Signature Algorithm: sha256WithRSAEncryption
        Issuer: C=SU, ST=SEEDLabs, L=Cuse, O=Lab 6, OU=PKI, CN=SEEDPKILab62020.com/emailAddress=cappetta<@>syr.edu
        Validity
            Not Before: Nov 26 02:47:20 2020 GMT
            Not After : Nov 26 02:47:20 2021 GMT
        Subject: C=SU, ST=SEEDLabs, O=Lab 6, OU=PKI, CN=SEEDPKILabcappetta.com/emailAddress=cappetta<at>syr.edu
        Subject Public Key Info:
            Public Key Algorithm: rsaEncryption
                Public-Key: (1024 bit)
                Modulus:
                    00:a2:cd:b5:82:87:a6:dd:c3:68:75:22:8c:dd:8a:
                    cf:d5:f1:09:aa:27:40:0b:0e:6e:10:7c:5f:6a:6b:
                    c8:4b:14:8c:49:5a:1e:2c:b1:1b:68:fe:3a:b7:d7:
                    d6:c7:0b:8a:e0:ab:50:bf:08:1f:fe:0f:4f:a4:98:
                    5e:7b:ce:af:02:98:85:c8:c4:99:2d:40:d0:41:87:
                    8f:eb:5b:1a:c1:d9:0f:e3:36:5d:bc:d0:65:c7:a9:
                    1a:c2:26:1e:e9:6f:68:5b:66:2d:13:b8:e8:3a:3e:
                    3b:1c:bf:f0:19:10:e7:14:60:b1:da:30:7b:25:fa:
                    75:ac:1c:89:7b:e0:76:1f:5f
                Exponent: 65537 (0x10001)
        X509v3 extensions:
            X509v3 Basic Constraints: 
                CA:FALSE
            Netscape Comment: 
                OpenSSL Generated Certificate
            X509v3 Subject Key Identifier: 
                83:13:7B:CA:AB:ED:70:E4:45:33:10:3E:E7:05:9F:7B:C1:B4:3E:BB
            X509v3 Authority Key Identifier: 
                keyid:29:64:F4:78:B5:B4:B9:5C:79:1D:35:6C:DD:8B:81:16:7C:B2:3D:04

    Signature Algorithm: sha256WithRSAEncryption
         d0:77:0c:c3:d2:8d:a1:20:ab:13:c0:45:c0:69:fe:30:79:08:
         f7:0d:bc:a9:12:af:6f:44:1a:3b:c7:87:76:b1:41:89:fd:e4:
         8b:80:dc:15:aa:5e:16:7a:f2:2b:f2:84:0e:ed:f2:07:02:4c:
         c8:b8:98:36:14:95:45:82:32:65:fb:03:b7:f1:d4:ce:54:68:
         25:b5:ff:b9:d9:1b:85:df:a0:d2:c0:c9:8a:3e:0f:ce:fd:73:
         80:fe:bd:d8:66:8d:69:38:6a:31:b2:b6:bd:ac:ab:74:39:b4:
         e8:5e:d5:87:eb:d3:70:19:59:5a:7f:c9:e4:03:77:64:f3:11:
         1a:6a:de:71:4d:1d:a8:16:b1:72:36:fc:bc:c2:8f:f4:f7:2b:
         64:c2:06:1e:ae:07:0c:85:18:f0:db:a9:48:56:2e:1c:f6:95:
         7e:3e:f8:d4:65:e3:18:0e:42:1c:12:d8:87:23:c1:a0:69:be:
         e9:26:bc:9a:44:e7:c2:e4:21:00:f6:4a:16:2f:ce:81:1d:67:
         ab:6a:34:ef:44:dc:af:3d:83:93:2a:47:16:0e:b3:23:3d:b4:
         cb:c7:78:72:44:81:71:25:56:cf:dd:42:01:25:80:3b:e0:1f:
         65:28:27:d6:22:bc:86:ba:3d:c3:d0:fa:0e:00:60:2f:5b:cd:
         72:0f:0f:f4
-----BEGIN CERTIFICATE-----
MIIDhjCCAm6gAwIBAgICEAEwDQYJKoZIhvcNAQELBQAwgY4xCzAJBgNVBAYTAlNV
MREwDwYDVQQIDAhTRUVETGFiczENMAsGA1UEBwwEQ3VzZTEOMAwGA1UECgwFTGFi
IDYxDDAKBgNVBAsMA1BLSTEcMBoGA1UEAwwTU0VFRFBLSUxhYjYyMDIwLmNvbTEh
MB8GCSqGSIb3DQEJARYSY2FwcGV0dGE8QD5zeXIuZWR1MB4XDTIwMTEyNjAyNDcy
MFoXDTIxMTEyNjAyNDcyMFowgYMxCzAJBgNVBAYTAlNVMREwDwYDVQQIDAhTRUVE
TGFiczEOMAwGA1UECgwFTGFiIDYxDDAKBgNVBAsMA1BLSTEfMB0GA1UEAwwWU0VF
RFBLSUxhYmNhcHBldHRhLmNvbTEiMCAGCSqGSIb3DQEJARYTY2FwcGV0dGE8YXQ+
c3lyLmVkdTCBnzANBgkqhkiG9w0BAQEFAAOBjQAwgYkCgYEAos21goem3cNodSKM
3YrP1fEJqidACw5uEHxfamvISxSMSVoeLLEbaP46t9fWxwuK4KtQvwgf/g9PpJhe
e86vApiFyMSZLUDQQYeP61sawdkP4zZdvNBlx6kawiYe6W9oW2YtE7joOj47HL/w
GRDnFGCx2jB7Jfp1rByJe+B2H18CAwEAAaN7MHkwCQYDVR0TBAIwADAsBglghkgB
hvhCAQ0EHxYdT3BlblNTTCBHZW5lcmF0ZWQgQ2VydGlmaWNhdGUwHQYDVR0OBBYE
FIMTe8qr7XDkRTMQPucFn3vBtD67MB8GA1UdIwQYMBaAFClk9Hi1tLlceR01bN2L
gRZ8sj0EMA0GCSqGSIb3DQEBCwUAA4IBAQDQdwzD0o2hIKsTwEXAaf4weQj3Dbyp
Eq9vRBo7x4d2sUGJ/eSLgNwVql4WevIr8oQO7fIHAkzIuJg2FJVFgjJl+wO38dTO
VGgltf+52RuF36DSwMmKPg/O/XOA/r3YZo1pOGoxsra9rKt0ObToXtWH69NwGVla
f8nkA3dk8xEaat5xTR2oFrFyNvy8wo/09ytkwgYergcMhRjw26lIVi4c9pV+PvjU
ZeMYDkIcEtiHI8Ggab7pJryaROfC5CEA9koWL86BHWerajTvRNyvPYOTKkcWDrMj
PbTLx3hyRIFxJVbP3UIBJYA74B9lKCfWIryGuj3D0PoOAGAvW81yDw/0
-----END CERTIFICATE-----
