Certificate:
    Data:
        Version: 3 (0x2)
        Serial Number: 4098 (0x1002)
    Signature Algorithm: sha256WithRSAEncryption
        Issuer: C=SU, ST=SEEDLabs, L=Cuse, O=Lab 6, OU=PKI, CN=SEEDPKILab62020.com/emailAddress=cappetta<@>syr.edu
        Validity
            Not Before: Nov 26 03:13:28 2020 GMT
            Not After : Nov 26 03:13:28 2021 GMT
        Subject: C=SU, ST=SEEDLabs, O=Lab 6, OU=PKI, CN=SEEDPKILabcappetta.com/emailAddress=cappetta<at>syr.edu
        Subject Public Key Info:
            Public Key Algorithm: rsaEncryption
                Public-Key: (1024 bit)
                Modulus:
                    00:a2:cd:b5:82:87:a6:dd:c3:68:75:22:8c:dd:8a:
                    cf:d5:f1:09:aa:27:40:0b:0e:6e:10:7c:5f:6a:6b:
                    c8:4b:14:8c:49:5a:1e:2c:b1:1b:68:fe:3a:b7:d7:
                    d6:c7:0b:8a:e0:ab:50:bf:08:1f:fe:0f:4f:a4:98:
                    5e:7b:ce:af:02:98:85:c8:c4:99:2d:40:d0:41:87:
                    8f:eb:5b:1a:c1:d9:0f:e3:36:5d:bc:d0:65:c7:a9:
                    1a:c2:26:1e:e9:6f:68:5b:66:2d:13:b8:e8:3a:3e:
                    3b:1c:bf:f0:19:10:e7:14:60:b1:da:30:7b:25:fa:
                    75:ac:1c:89:7b:e0:76:1f:5f
                Exponent: 65537 (0x10001)
        X509v3 extensions:
            X509v3 Basic Constraints: 
                CA:FALSE
            Netscape Comment: 
                OpenSSL Generated Certificate
            X509v3 Subject Key Identifier: 
                83:13:7B:CA:AB:ED:70:E4:45:33:10:3E:E7:05:9F:7B:C1:B4:3E:BB
            X509v3 Authority Key Identifier: 
                keyid:29:64:F4:78:B5:B4:B9:5C:79:1D:35:6C:DD:8B:81:16:7C:B2:3D:04

    Signature Algorithm: sha256WithRSAEncryption
         75:4e:96:81:87:fe:3a:2d:7c:11:07:0c:cb:ca:b5:b9:5c:77:
         a7:04:87:ce:37:c2:e1:10:71:d4:03:d7:55:ac:41:4b:6d:9f:
         16:75:8b:46:99:ee:ed:b7:1d:9c:44:d0:67:81:50:0a:5f:1f:
         5a:6b:14:06:47:42:af:b7:04:fe:68:62:7e:dd:84:e8:1a:c8:
         b2:35:aa:75:15:c9:75:6d:64:ef:78:5b:af:32:d9:67:a4:a2:
         38:96:02:3c:d8:7c:e1:0f:02:a5:63:39:3b:f5:04:81:09:ba:
         47:f2:c0:fe:d7:57:85:08:ce:05:c0:6c:8c:90:cf:22:5f:13:
         60:1a:b9:90:30:9e:c9:e6:4b:cb:94:0c:5b:ac:ff:cd:71:79:
         25:1e:d6:2a:4b:6c:65:f1:bd:cb:bc:94:d2:79:6c:ee:c4:3a:
         86:c0:47:f8:66:47:31:de:f1:63:42:69:98:89:d0:0e:5b:1c:
         e0:98:89:6b:50:86:f7:bc:6c:c3:59:7f:6d:df:54:9b:13:d2:
         3a:c2:13:0b:f3:fa:9a:78:27:10:46:20:e9:65:ff:97:9e:7b:
         c7:ce:0a:24:96:d3:98:fe:5f:dd:92:63:0a:08:aa:fc:e2:0d:
         68:da:fe:fd:5f:3a:12:a4:d3:85:71:3d:a4:5f:f8:54:89:cb:
         73:82:6d:59
-----BEGIN CERTIFICATE-----
MIIDhjCCAm6gAwIBAgICEAIwDQYJKoZIhvcNAQELBQAwgY4xCzAJBgNVBAYTAlNV
MREwDwYDVQQIDAhTRUVETGFiczENMAsGA1UEBwwEQ3VzZTEOMAwGA1UECgwFTGFi
IDYxDDAKBgNVBAsMA1BLSTEcMBoGA1UEAwwTU0VFRFBLSUxhYjYyMDIwLmNvbTEh
MB8GCSqGSIb3DQEJARYSY2FwcGV0dGE8QD5zeXIuZWR1MB4XDTIwMTEyNjAzMTMy
OFoXDTIxMTEyNjAzMTMyOFowgYMxCzAJBgNVBAYTAlNVMREwDwYDVQQIDAhTRUVE
TGFiczEOMAwGA1UECgwFTGFiIDYxDDAKBgNVBAsMA1BLSTEfMB0GA1UEAwwWU0VF
RFBLSUxhYmNhcHBldHRhLmNvbTEiMCAGCSqGSIb3DQEJARYTY2FwcGV0dGE8YXQ+
c3lyLmVkdTCBnzANBgkqhkiG9w0BAQEFAAOBjQAwgYkCgYEAos21goem3cNodSKM
3YrP1fEJqidACw5uEHxfamvISxSMSVoeLLEbaP46t9fWxwuK4KtQvwgf/g9PpJhe
e86vApiFyMSZLUDQQYeP61sawdkP4zZdvNBlx6kawiYe6W9oW2YtE7joOj47HL/w
GRDnFGCx2jB7Jfp1rByJe+B2H18CAwEAAaN7MHkwCQYDVR0TBAIwADAsBglghkgB
hvhCAQ0EHxYdT3BlblNTTCBHZW5lcmF0ZWQgQ2VydGlmaWNhdGUwHQYDVR0OBBYE
FIMTe8qr7XDkRTMQPucFn3vBtD67MB8GA1UdIwQYMBaAFClk9Hi1tLlceR01bN2L
gRZ8sj0EMA0GCSqGSIb3DQEBCwUAA4IBAQB1TpaBh/46LXwRBwzLyrW5XHenBIfO
N8LhEHHUA9dVrEFLbZ8WdYtGme7ttx2cRNBngVAKXx9aaxQGR0KvtwT+aGJ+3YTo
GsiyNap1Fcl1bWTveFuvMtlnpKI4lgI82HzhDwKlYzk79QSBCbpH8sD+11eFCM4F
wGyMkM8iXxNgGrmQMJ7J5kvLlAxbrP/NcXklHtYqS2xl8b3LvJTSeWzuxDqGwEf4
Zkcx3vFjQmmYidAOWxzgmIlrUIb3vGzDWX9t31SbE9I6whML8/qaeCcQRiDpZf+X
nnvHzgokltOY/l/dkmMKCKr84g1o2v79XzoSpNOFcT2kX/hUictzgm1Z
-----END CERTIFICATE-----
